target datalayout = "e-m:e-p270:32:32-p271:32:32-p272:64:64-i64:64-i128:128-f80:128-n8:16:32:64-S128"
target triple = "x86_64-pc-linux-gnu"

%struct.H5T_t = type { %struct.H5O_shared_t, ptr, %struct.H5O_loc_t, %struct.H5G_name_t, ptr }
%struct.H5O_shared_t = type { i32, ptr, i32, %union.anon }
%union.anon = type { %struct.H5O_mesg_loc_t }
%struct.H5O_mesg_loc_t = type { i32, i64 }
%struct.H5O_loc_t = type { ptr, i64, i8 }
%struct.H5G_name_t = type { ptr, ptr, i32 }
%struct.H5T_shared_t = type { i64, i32, i32, i64, i32, i8, ptr, ptr, %union.anon.0 }
%union.anon.0 = type { %struct.H5T_array_t }
%struct.H5T_array_t = type { i64, i32, [32 x i64] }
%struct.H5T_complex_t = type { i32 }

@H5_libterm_g = external global i8, align 1
@.str = private unnamed_addr constant [104 x i8] c"generated/home/dtcxzyw/WorkSpace/Projects/compilers/llvm-opt-benchmark/bench/hdf5/hdf5/src/H5Tcomplex.c\00", align 1
@H5T_init_g = external global i8, align 1
@H5E_DATATYPE_g = external global i64, align 8
@__func__.H5T__complex_create = private unnamed_addr constant [20 x i8] c"H5T__complex_create\00", align 1
@H5E_BADVALUE_g = external global i64, align 8
@.str.7 = private unnamed_addr constant [42 x i8] c"base datatype is not a H5T_FLOAT datatype\00", align 1
@.str.8 = private unnamed_addr constant [27 x i8] c"invalid base datatype size\00", align 1
@.str.9 = private unnamed_addr constant [64 x i8] c"base datatype size too large - new datatype size would overflow\00", align 1
@H5E_CANTALLOC_g = external global i64, align 8
@.str.10 = private unnamed_addr constant [25 x i8] c"memory allocation failed\00", align 1
@H5E_CANTCOPY_g = external global i64, align 8
@.str.11 = private unnamed_addr constant [25 x i8] c"can't copy base datatype\00", align 1
@H5E_CANTCLOSEOBJ_g = external global i64, align 8
@.str.12 = private unnamed_addr constant [21 x i8] c"can't close datatype\00", align 1

; Function Attrs: nounwind uwtable
define ptr @H5T__complex_create(ptr noundef %0) #0 {
  %2 = alloca ptr, align 8
  %3 = alloca ptr, align 8
  %4 = alloca ptr, align 8
  %5 = alloca i8, align 1
  store ptr %0, ptr %2, align 8, !tbaa !7
  call void @llvm.lifetime.start.p0(i64 8, ptr %3) #5
  store ptr null, ptr %3, align 8, !tbaa !7
  call void @llvm.lifetime.start.p0(i64 8, ptr %4) #5
  store ptr null, ptr %4, align 8, !tbaa !7
  call void @llvm.lifetime.start.p0(i64 1, ptr %5) #5
  store i8 0, ptr %5, align 1, !tbaa !10
  %6 = load i8, ptr @H5T_init_g, align 1, !tbaa !10, !range !12, !noundef !13
  %7 = trunc i8 %6 to i1
  br i1 %7, label %12, label %8

8:                                                ; preds = %1
  %9 = load i8, ptr @H5_libterm_g, align 1, !tbaa !10, !range !12, !noundef !13
  %10 = trunc i8 %9 to i1
  %11 = xor i1 %10, true
  br label %12

12:                                               ; preds = %8, %1
  %13 = phi i1 [ true, %1 ], [ %11, %8 ]
  %14 = xor i1 %13, true
  %15 = xor i1 %14, true
  %16 = zext i1 %15 to i32
  %17 = sext i32 %16 to i64
  %18 = call i64 @llvm.expect.i64(i64 %17, i64 1)
  %19 = icmp ne i64 %18, 0
  br i1 %19, label %20, label %215

20:                                               ; preds = %12
  %21 = load ptr, ptr %2, align 8, !tbaa !7
  %22 = getelementptr inbounds nuw %struct.H5T_t, ptr %21, i32 0, i32 1
  %23 = load ptr, ptr %22, align 8, !tbaa !14
  %24 = getelementptr inbounds nuw %struct.H5T_shared_t, ptr %23, i32 0, i32 2
  %25 = load i32, ptr %24, align 4, !tbaa !24
  %26 = icmp ne i32 %25, 1
  br i1 %26, label %27, label %46

27:                                               ; preds = %20
  br label %28

28:                                               ; preds = %27
  br label %29

29:                                               ; preds = %28
  br label %30

30:                                               ; preds = %29
  %31 = load i64, ptr @H5E_DATATYPE_g, align 8, !tbaa !3
  %32 = load i64, ptr @H5E_BADVALUE_g, align 8, !tbaa !3
  %33 = call i32 (ptr, ptr, i32, i64, i64, ptr, ...) @H5E_printf_stack(ptr noundef @.str, ptr noundef @__func__.H5T__complex_create, i32 noundef 122, i64 noundef %31, i64 noundef %32, ptr noundef @.str.7)
  br label %34

34:                                               ; preds = %30
  br label %35

35:                                               ; preds = %34
  store i8 1, ptr %5, align 1, !tbaa !10
  %36 = load i8, ptr %5, align 1, !tbaa !10, !range !12, !noundef !13
  %37 = trunc i8 %36 to i1
  %38 = zext i1 %37 to i8
  store i8 %38, ptr %5, align 1, !tbaa !10
  br label %39

39:                                               ; preds = %35
  br label %40

40:                                               ; preds = %39
  br label %41

41:                                               ; preds = %40
  store ptr null, ptr %4, align 8, !tbaa !7
  br label %187

42:                                               ; No predecessors!
  br label %43

43:                                               ; preds = %42
  br label %44

44:                                               ; preds = %43
  br label %45

45:                                               ; preds = %44
  br label %46

46:                                               ; preds = %45, %20
  %47 = load ptr, ptr %2, align 8, !tbaa !7
  %48 = getelementptr inbounds nuw %struct.H5T_t, ptr %47, i32 0, i32 1
  %49 = load ptr, ptr %48, align 8, !tbaa !14
  %50 = getelementptr inbounds nuw %struct.H5T_shared_t, ptr %49, i32 0, i32 3
  %51 = load i64, ptr %50, align 8, !tbaa !26
  %52 = icmp eq i64 %51, 0
  br i1 %52, label %53, label %72

53:                                               ; preds = %46
  br label %54

54:                                               ; preds = %53
  br label %55

55:                                               ; preds = %54
  br label %56

56:                                               ; preds = %55
  %57 = load i64, ptr @H5E_DATATYPE_g, align 8, !tbaa !3
  %58 = load i64, ptr @H5E_BADVALUE_g, align 8, !tbaa !3
  %59 = call i32 (ptr, ptr, i32, i64, i64, ptr, ...) @H5E_printf_stack(ptr noundef @.str, ptr noundef @__func__.H5T__complex_create, i32 noundef 124, i64 noundef %57, i64 noundef %58, ptr noundef @.str.8)
  br label %60

60:                                               ; preds = %56
  br label %61

61:                                               ; preds = %60
  store i8 1, ptr %5, align 1, !tbaa !10
  %62 = load i8, ptr %5, align 1, !tbaa !10, !range !12, !noundef !13
  %63 = trunc i8 %62 to i1
  %64 = zext i1 %63 to i8
  store i8 %64, ptr %5, align 1, !tbaa !10
  br label %65

65:                                               ; preds = %61
  br label %66

66:                                               ; preds = %65
  br label %67

67:                                               ; preds = %66
  store ptr null, ptr %4, align 8, !tbaa !7
  br label %187

68:                                               ; No predecessors!
  br label %69

69:                                               ; preds = %68
  br label %70

70:                                               ; preds = %69
  br label %71

71:                                               ; preds = %70
  br label %72

72:                                               ; preds = %71, %46
  %73 = load ptr, ptr %2, align 8, !tbaa !7
  %74 = getelementptr inbounds nuw %struct.H5T_t, ptr %73, i32 0, i32 1
  %75 = load ptr, ptr %74, align 8, !tbaa !14
  %76 = getelementptr inbounds nuw %struct.H5T_shared_t, ptr %75, i32 0, i32 3
  %77 = load i64, ptr %76, align 8, !tbaa !26
  %78 = icmp ugt i64 %77, 9223372036854775807
  br i1 %78, label %79, label %98

79:                                               ; preds = %72
  br label %80

80:                                               ; preds = %79
  br label %81

81:                                               ; preds = %80
  br label %82

82:                                               ; preds = %81
  %83 = load i64, ptr @H5E_DATATYPE_g, align 8, !tbaa !3
  %84 = load i64, ptr @H5E_BADVALUE_g, align 8, !tbaa !3
  %85 = call i32 (ptr, ptr, i32, i64, i64, ptr, ...) @H5E_printf_stack(ptr noundef @.str, ptr noundef @__func__.H5T__complex_create, i32 noundef 127, i64 noundef %83, i64 noundef %84, ptr noundef @.str.9)
  br label %86

86:                                               ; preds = %82
  br label %87

87:                                               ; preds = %86
  store i8 1, ptr %5, align 1, !tbaa !10
  %88 = load i8, ptr %5, align 1, !tbaa !10, !range !12, !noundef !13
  %89 = trunc i8 %88 to i1
  %90 = zext i1 %89 to i8
  store i8 %90, ptr %5, align 1, !tbaa !10
  br label %91

91:                                               ; preds = %87
  br label %92

92:                                               ; preds = %91
  br label %93

93:                                               ; preds = %92
  store ptr null, ptr %4, align 8, !tbaa !7
  br label %187

94:                                               ; No predecessors!
  br label %95

95:                                               ; preds = %94
  br label %96

96:                                               ; preds = %95
  br label %97

97:                                               ; preds = %96
  br label %98

98:                                               ; preds = %97, %72
  %99 = call ptr @H5T__alloc()
  store ptr %99, ptr %3, align 8, !tbaa !7
  %100 = icmp eq ptr null, %99
  br i1 %100, label %101, label %120

101:                                              ; preds = %98
  br label %102

102:                                              ; preds = %101
  br label %103

103:                                              ; preds = %102
  br label %104

104:                                              ; preds = %103
  %105 = load i64, ptr @H5E_DATATYPE_g, align 8, !tbaa !3
  %106 = load i64, ptr @H5E_CANTALLOC_g, align 8, !tbaa !3
  %107 = call i32 (ptr, ptr, i32, i64, i64, ptr, ...) @H5E_printf_stack(ptr noundef @.str, ptr noundef @__func__.H5T__complex_create, i32 noundef 131, i64 noundef %105, i64 noundef %106, ptr noundef @.str.10)
  br label %108

108:                                              ; preds = %104
  br label %109

109:                                              ; preds = %108
  store i8 1, ptr %5, align 1, !tbaa !10
  %110 = load i8, ptr %5, align 1, !tbaa !10, !range !12, !noundef !13
  %111 = trunc i8 %110 to i1
  %112 = zext i1 %111 to i8
  store i8 %112, ptr %5, align 1, !tbaa !10
  br label %113

113:                                              ; preds = %109
  br label %114

114:                                              ; preds = %113
  br label %115

115:                                              ; preds = %114
  store ptr null, ptr %4, align 8, !tbaa !7
  br label %187

116:                                              ; No predecessors!
  br label %117

117:                                              ; preds = %116
  br label %118

118:                                              ; preds = %117
  br label %119

119:                                              ; preds = %118
  br label %120

120:                                              ; preds = %119, %98
  %121 = load ptr, ptr %3, align 8, !tbaa !7
  %122 = getelementptr inbounds nuw %struct.H5T_t, ptr %121, i32 0, i32 1
  %123 = load ptr, ptr %122, align 8, !tbaa !14
  %124 = getelementptr inbounds nuw %struct.H5T_shared_t, ptr %123, i32 0, i32 2
  store i32 11, ptr %124, align 4, !tbaa !24
  %125 = load ptr, ptr %2, align 8, !tbaa !7
  %126 = getelementptr inbounds nuw %struct.H5T_t, ptr %125, i32 0, i32 1
  %127 = load ptr, ptr %126, align 8, !tbaa !14
  %128 = getelementptr inbounds nuw %struct.H5T_shared_t, ptr %127, i32 0, i32 3
  %129 = load i64, ptr %128, align 8, !tbaa !26
  %130 = mul i64 2, %129
  %131 = load ptr, ptr %3, align 8, !tbaa !7
  %132 = getelementptr inbounds nuw %struct.H5T_t, ptr %131, i32 0, i32 1
  %133 = load ptr, ptr %132, align 8, !tbaa !14
  %134 = getelementptr inbounds nuw %struct.H5T_shared_t, ptr %133, i32 0, i32 3
  store i64 %130, ptr %134, align 8, !tbaa !26
  %135 = load ptr, ptr %2, align 8, !tbaa !7
  %136 = call ptr @H5T_copy(ptr noundef %135, i32 noundef 1)
  %137 = load ptr, ptr %3, align 8, !tbaa !7
  %138 = getelementptr inbounds nuw %struct.H5T_t, ptr %137, i32 0, i32 1
  %139 = load ptr, ptr %138, align 8, !tbaa !14
  %140 = getelementptr inbounds nuw %struct.H5T_shared_t, ptr %139, i32 0, i32 6
  store ptr %136, ptr %140, align 8, !tbaa !27
  %141 = icmp eq ptr null, %136
  br i1 %141, label %142, label %161

142:                                              ; preds = %120
  br label %143

143:                                              ; preds = %142
  br label %144

144:                                              ; preds = %143
  br label %145

145:                                              ; preds = %144
  %146 = load i64, ptr @H5E_DATATYPE_g, align 8, !tbaa !3
  %147 = load i64, ptr @H5E_CANTCOPY_g, align 8, !tbaa !3
  %148 = call i32 (ptr, ptr, i32, i64, i64, ptr, ...) @H5E_printf_stack(ptr noundef @.str, ptr noundef @__func__.H5T__complex_create, i32 noundef 136, i64 noundef %146, i64 noundef %147, ptr noundef @.str.11)
  br label %149

149:                                              ; preds = %145
  br label %150

150:                                              ; preds = %149
  store i8 1, ptr %5, align 1, !tbaa !10
  %151 = load i8, ptr %5, align 1, !tbaa !10, !range !12, !noundef !13
  %152 = trunc i8 %151 to i1
  %153 = zext i1 %152 to i8
  store i8 %153, ptr %5, align 1, !tbaa !10
  br label %154

154:                                              ; preds = %150
  br label %155

155:                                              ; preds = %154
  br label %156

156:                                              ; preds = %155
  store ptr null, ptr %4, align 8, !tbaa !7
  br label %187

157:                                              ; No predecessors!
  br label %158

158:                                              ; preds = %157
  br label %159

159:                                              ; preds = %158
  br label %160

160:                                              ; preds = %159
  br label %161

161:                                              ; preds = %160, %120
  %162 = load ptr, ptr %3, align 8, !tbaa !7
  %163 = getelementptr inbounds nuw %struct.H5T_t, ptr %162, i32 0, i32 1
  %164 = load ptr, ptr %163, align 8, !tbaa !14
  %165 = getelementptr inbounds nuw %struct.H5T_shared_t, ptr %164, i32 0, i32 8
  %166 = getelementptr inbounds nuw %struct.H5T_complex_t, ptr %165, i32 0, i32 0
  store i32 0, ptr %166, align 8, !tbaa !28
  %167 = load ptr, ptr %2, align 8, !tbaa !7
  %168 = getelementptr inbounds nuw %struct.H5T_t, ptr %167, i32 0, i32 1
  %169 = load ptr, ptr %168, align 8, !tbaa !14
  %170 = getelementptr inbounds nuw %struct.H5T_shared_t, ptr %169, i32 0, i32 4
  %171 = load i32, ptr %170, align 8, !tbaa !29
  %172 = icmp ugt i32 %171, 5
  br i1 %172, label %173, label %179

173:                                              ; preds = %161
  %174 = load ptr, ptr %2, align 8, !tbaa !7
  %175 = getelementptr inbounds nuw %struct.H5T_t, ptr %174, i32 0, i32 1
  %176 = load ptr, ptr %175, align 8, !tbaa !14
  %177 = getelementptr inbounds nuw %struct.H5T_shared_t, ptr %176, i32 0, i32 4
  %178 = load i32, ptr %177, align 8, !tbaa !29
  br label %180

179:                                              ; preds = %161
  br label %180

180:                                              ; preds = %179, %173
  %181 = phi i32 [ %178, %173 ], [ 5, %179 ]
  %182 = load ptr, ptr %3, align 8, !tbaa !7
  %183 = getelementptr inbounds nuw %struct.H5T_t, ptr %182, i32 0, i32 1
  %184 = load ptr, ptr %183, align 8, !tbaa !14
  %185 = getelementptr inbounds nuw %struct.H5T_shared_t, ptr %184, i32 0, i32 4
  store i32 %181, ptr %185, align 8, !tbaa !29
  %186 = load ptr, ptr %3, align 8, !tbaa !7
  store ptr %186, ptr %4, align 8, !tbaa !7
  br label %187

187:                                              ; preds = %180, %156, %115, %93, %67, %41
  %188 = load ptr, ptr %4, align 8, !tbaa !7
  %189 = icmp ne ptr %188, null
  br i1 %189, label %214, label %190

190:                                              ; preds = %187
  %191 = load ptr, ptr %3, align 8, !tbaa !7
  %192 = icmp ne ptr %191, null
  br i1 %192, label %193, label %213

193:                                              ; preds = %190
  %194 = load ptr, ptr %3, align 8, !tbaa !7
  %195 = call i32 @H5T_close(ptr noundef %194)
  %196 = icmp slt i32 %195, 0
  br i1 %196, label %197, label %213

197:                                              ; preds = %193
  br label %198

198:                                              ; preds = %197
  br label %199

199:                                              ; preds = %198
  br label %200

200:                                              ; preds = %199
  %201 = load i64, ptr @H5E_DATATYPE_g, align 8, !tbaa !3
  %202 = load i64, ptr @H5E_CANTCLOSEOBJ_g, align 8, !tbaa !3
  %203 = call i32 (ptr, ptr, i32, i64, i64, ptr, ...) @H5E_printf_stack(ptr noundef @.str, ptr noundef @__func__.H5T__complex_create, i32 noundef 149, i64 noundef %201, i64 noundef %202, ptr noundef @.str.12)
  br label %204

204:                                              ; preds = %200
  br label %205

205:                                              ; preds = %204
  store i8 1, ptr %5, align 1, !tbaa !10
  %206 = load i8, ptr %5, align 1, !tbaa !10, !range !12, !noundef !13
  %207 = trunc i8 %206 to i1
  %208 = zext i1 %207 to i8
  store i8 %208, ptr %5, align 1, !tbaa !10
  br label %209

209:                                              ; preds = %205
  br label %210

210:                                              ; preds = %209
  store ptr null, ptr %4, align 8, !tbaa !7
  br label %211

211:                                              ; preds = %210
  br label %212

212:                                              ; preds = %211
  br label %213

213:                                              ; preds = %212, %193, %190
  br label %214

214:                                              ; preds = %213, %187
  br label %215

215:                                              ; preds = %214, %12
  %216 = load ptr, ptr %4, align 8, !tbaa !7
  call void @llvm.lifetime.end.p0(i64 1, ptr %5) #5
  call void @llvm.lifetime.end.p0(i64 8, ptr %4) #5
  call void @llvm.lifetime.end.p0(i64 8, ptr %3) #5
  ret ptr %216
}