; Function Attrs: nounwind uwtable
define ptr @H5T__complex_create(ptr noundef %0) local_unnamed_addr #0 {
  %2 = load i8, ptr @H5T_init_g, align 1, !tbaa !3, !range !7, !noundef !8
  %3 = trunc nuw i8 %2 to i1
  %4 = load i8, ptr @H5_libterm_g, align 1, !range !7
  %5 = trunc nuw i8 %4 to i1
  %6 = xor i1 %5, true
  %7 = select i1 %3, i1 true, i1 %6
  br i1 %7, label %8, label %.thread, !prof !9

8:                                                ; preds = %1
  %9 = getelementptr inbounds nuw i8, ptr %0, i64 40
  %10 = load ptr, ptr %9, align 8, !tbaa !15
  %11 = getelementptr inbounds nuw i8, ptr %10, i64 12
  %12 = load i32, ptr %11, align 4, !tbaa !26
  %.not = icmp eq i32 %12, 1
  br i1 %.not, label %17, label %13

13:                                               ; preds = %8
  %14 = load i64, ptr @H5E_DATATYPE_g, align 8, !tbaa !11
  %15 = load i64, ptr @H5E_BADVALUE_g, align 8, !tbaa !11
  %16 = tail call i32 (ptr, ptr, i32, i64, i64, ptr, ...) @H5E_printf_stack(ptr noundef nonnull @.str, ptr noundef nonnull @__func__.H5T__complex_create, i32 noundef 122, i64 noundef %14, i64 noundef %15, ptr noundef nonnull @.str.7) #5
  br label %.thread

17:                                               ; preds = %8
  %18 = getelementptr inbounds nuw i8, ptr %10, i64 16
  %19 = load i64, ptr %18, align 8, !tbaa !29
  %20 = icmp eq i64 %19, 0
  br i1 %20, label %21, label %25

21:                                               ; preds = %17
  %22 = load i64, ptr @H5E_DATATYPE_g, align 8, !tbaa !11
  %23 = load i64, ptr @H5E_BADVALUE_g, align 8, !tbaa !11
  %24 = tail call i32 (ptr, ptr, i32, i64, i64, ptr, ...) @H5E_printf_stack(ptr noundef nonnull @.str, ptr noundef nonnull @__func__.H5T__complex_create, i32 noundef 124, i64 noundef %22, i64 noundef %23, ptr noundef nonnull @.str.8) #5
  br label %.thread

25:                                               ; preds = %17
  %26 = icmp slt i64 %19, 0
  br i1 %26, label %27, label %31

27:                                               ; preds = %25
  %28 = load i64, ptr @H5E_DATATYPE_g, align 8, !tbaa !11
  %29 = load i64, ptr @H5E_BADVALUE_g, align 8, !tbaa !11
  %30 = tail call i32 (ptr, ptr, i32, i64, i64, ptr, ...) @H5E_printf_stack(ptr noundef nonnull @.str, ptr noundef nonnull @__func__.H5T__complex_create, i32 noundef 127, i64 noundef %28, i64 noundef %29, ptr noundef nonnull @.str.9) #5
  br label %.thread

31:                                               ; preds = %25
  %32 = tail call ptr @H5T__alloc() #5
  %33 = icmp eq ptr %32, null
  br i1 %33, label %34, label %38

34:                                               ; preds = %31
  %35 = load i64, ptr @H5E_DATATYPE_g, align 8, !tbaa !11
  %36 = load i64, ptr @H5E_CANTALLOC_g, align 8, !tbaa !11
  %37 = tail call i32 (ptr, ptr, i32, i64, i64, ptr, ...) @H5E_printf_stack(ptr noundef nonnull @.str, ptr noundef nonnull @__func__.H5T__complex_create, i32 noundef 131, i64 noundef %35, i64 noundef %36, ptr noundef nonnull @.str.10) #5
  br label %.thread

38:                                               ; preds = %31
  %39 = getelementptr inbounds nuw i8, ptr %32, i64 40
  %40 = load ptr, ptr %39, align 8, !tbaa !15
  %41 = getelementptr inbounds nuw i8, ptr %40, i64 12
  store i32 11, ptr %41, align 4, !tbaa !26
  %42 = load ptr, ptr %9, align 8, !tbaa !15
  %43 = getelementptr inbounds nuw i8, ptr %42, i64 16
  %44 = load i64, ptr %43, align 8, !tbaa !29
  %45 = shl i64 %44, 1
  %46 = getelementptr inbounds nuw i8, ptr %40, i64 16
  store i64 %45, ptr %46, align 8, !tbaa !29
  %47 = tail call ptr @H5T_copy(ptr noundef nonnull %0, i32 noundef 1) #5
  %48 = load ptr, ptr %39, align 8, !tbaa !15
  %49 = getelementptr inbounds nuw i8, ptr %48, i64 32
  store ptr %47, ptr %49, align 8, !tbaa !30
  %50 = icmp eq ptr %47, null
  br i1 %50, label %58, label %51

51:                                               ; preds = %38
  %52 = getelementptr inbounds nuw i8, ptr %48, i64 48
  store i32 0, ptr %52, align 8, !tbaa !31
  %53 = load ptr, ptr %9, align 8, !tbaa !15
  %54 = getelementptr inbounds nuw i8, ptr %53, i64 24
  %55 = load i32, ptr %54, align 8, !tbaa !32
  %spec.select = tail call i32 @llvm.umax.i32(i32 %55, i32 5)
  %56 = load ptr, ptr %39, align 8, !tbaa !15
  %57 = getelementptr inbounds nuw i8, ptr %56, i64 24
  store i32 %spec.select, ptr %57, align 8, !tbaa !32
  br label %.thread

58:                                               ; preds = %38
  %59 = load i64, ptr @H5E_DATATYPE_g, align 8, !tbaa !11
  %60 = load i64, ptr @H5E_CANTCOPY_g, align 8, !tbaa !11
  %61 = tail call i32 (ptr, ptr, i32, i64, i64, ptr, ...) @H5E_printf_stack(ptr noundef nonnull @.str, ptr noundef nonnull @__func__.H5T__complex_create, i32 noundef 136, i64 noundef %59, i64 noundef %60, ptr noundef nonnull @.str.11) #5
  %62 = tail call i32 @H5T_close(ptr noundef nonnull %32) #5
  %63 = icmp slt i32 %62, 0
  br i1 %63, label %64, label %.thread

64:                                               ; preds = %58
  %65 = load i64, ptr @H5E_DATATYPE_g, align 8, !tbaa !11
  %66 = load i64, ptr @H5E_CANTCLOSEOBJ_g, align 8, !tbaa !11
  %67 = tail call i32 (ptr, ptr, i32, i64, i64, ptr, ...) @H5E_printf_stack(ptr noundef nonnull @.str, ptr noundef nonnull @__func__.H5T__complex_create, i32 noundef 149, i64 noundef %65, i64 noundef %66, ptr noundef nonnull @.str.12) #5
  br label %.thread

.thread:                                          ; preds = %34, %27, %21, %13, %51, %64, %58, %1
  %.0 = phi ptr [ null, %64 ], [ null, %58 ], [ null, %1 ], [ %32, %51 ], [ null, %34 ], [ null, %27 ], [ null, %21 ], [ null, %13 ]
  ret ptr %.0
}